(dp0
VChicago
p1
VChicago Bulls
p2
sVPhiladelphia
p3
VPhiladelphia 76ers
p4
sVDenver
p5
VDenver Nuggets
p6
sVIndiana
p7
VIndiana Pacers
p8
sVGolden State
p9
VGolden State Warriors
p10
sVPhoenix
p11
VPhoenix Suns
p12
sVLA
p13
VLA Clippers
p14
sVSacramento
p15
VSacramento Kings
p16
sVDallas
p17
VDallas Mavericks
p18
sVUtah
p19
VUtah Jazz
p20
sVBrooklyn
p21
VBrooklyn Nets
p22
sVNew Orleans
p23
VNew Orleans Pelicans
p24
sVLos Angeles
p25
VLos Angeles Lakers
p26
sVAtlanta
p27
VAtlanta Hawks
p28
sVMemphis
p29
VMemphis Grizzlies
p30
sVSan Antonio
p31
VSan Antonio Spurs
p32
sVToronto
p33
VToronto Raptors
p34
sVCharlotte
p35
VCharlotte Hornets
p36
sVMiami
p37
VMiami Heat
p38
sVOrlando
p39
VOrlando Magic
p40
sVDetroit
p41
VDetroit Pistons
p42
sVMinnesota
p43
VMinnesota Timberwolves
p44
sS'Portland'
p45
VPortland Trail Blazers
p46
sVHouston
p47
VHouston Rockets
p48
sVBoston
p49
VBoston Celtics
p50
sVWashington
p51
VWashington Wizards
p52
sVNew York
p53
VNew York Knicks
p54
sVCleveland
p55
VCleveland Cavaliers
p56
sVMilwaukee
p57
VMilwaukee Bucks
p58
sVOklahoma City
p59
VOklahoma City Thunder
p60
s.